target datalayout = "e-m:e-p270:32:32-p271:32:32-p272:64:64-i64:64-i128:128-f80:128-n8:16:32:64-S128"
target triple = "x86_64-pc-linux-gnu"

; Function Attrs: mustprogress uwtable
define noundef i64 @_ZN32pxrInternal_v0_24__pxrReserved__9ArchPReadEP8_IO_FILEPvml(ptr noundef %0, ptr noundef %1, i64 noundef %2, i64 noundef %3) #0 {
  %5 = alloca i64, align 8
  %6 = alloca ptr, align 8
  %7 = alloca ptr, align 8
  %8 = alloca i64, align 8
  %9 = alloca i64, align 8
  %10 = alloca i32, align 4
  %11 = alloca i64, align 8
  %12 = alloca i64, align 8
  %13 = alloca i64, align 8
  store ptr %0, ptr %6, align 8
  store ptr %1, ptr %7, align 8
  store i64 %2, ptr %8, align 8
  store i64 %3, ptr %9, align 8
  %14 = load i64, ptr %8, align 8
  %15 = icmp eq i64 %14, 0
  br i1 %15, label %16, label %17

16:                                               ; preds = %4
  store i64 0, ptr %5, align 8
  br label %87

17:                                               ; preds = %4
  %18 = load ptr, ptr %6, align 8
  %19 = call i32 @fileno(ptr noundef %18) #6
  store i32 %19, ptr %10, align 4
  %20 = load i64, ptr %8, align 8
  store i64 %20, ptr %11, align 8
  %21 = load i32, ptr %10, align 4
  %22 = load ptr, ptr %7, align 8
  %23 = load i64, ptr %11, align 8
  %24 = load i64, ptr %9, align 8
  %25 = call i64 @pread(i32 noundef %21, ptr noundef %22, i64 noundef %23, i64 noundef %24)
  store i64 %25, ptr %12, align 8
  %26 = load i64, ptr %12, align 8
  %27 = load i64, ptr %11, align 8
  %28 = icmp eq i64 %26, %27
  br i1 %28, label %32, label %29

29:                                               ; preds = %17
  %30 = load i64, ptr %12, align 8
  %31 = icmp eq i64 %30, 0
  br label %32

32:                                               ; preds = %29, %17
  %33 = phi i1 [ true, %17 ], [ %31, %29 ]
  br i1 %33, label %34, label %36

34:                                               ; preds = %32
  %35 = load i64, ptr %12, align 8
  store i64 %35, ptr %5, align 8
  br label %87

36:                                               ; preds = %32
  store i64 0, ptr %13, align 8
  br label %37

37:                                               ; preds = %85, %36
  %38 = load i64, ptr %12, align 8
  %39 = icmp ne i64 %38, -1
  br i1 %39, label %49, label %40

40:                                               ; preds = %37
  %41 = load i64, ptr %12, align 8
  %42 = icmp eq i64 %41, -1
  br i1 %42, label %43, label %47

43:                                               ; preds = %40
  %44 = call ptr @__errno_location() #16
  %45 = load i32, ptr %44, align 4
  %46 = icmp eq i32 %45, 4
  br label %47

47:                                               ; preds = %43, %40
  %48 = phi i1 [ false, %40 ], [ %46, %43 ]
  br label %49

49:                                               ; preds = %47, %37
  %50 = phi i1 [ true, %37 ], [ %48, %47 ]
  br i1 %50, label %51, label %86

51:                                               ; preds = %49
  %52 = load i64, ptr %12, align 8
  %53 = icmp sgt i64 %52, 0
  br i1 %53, label %54, label %67

54:                                               ; preds = %51
  %55 = load i64, ptr %12, align 8
  %56 = load i64, ptr %13, align 8
  %57 = add nsw i64 %56, %55
  store i64 %57, ptr %13, align 8
  %58 = load i64, ptr %12, align 8
  %59 = load i64, ptr %11, align 8
  %60 = sub nsw i64 %59, %58
  store i64 %60, ptr %11, align 8
  %61 = load i64, ptr %12, align 8
  %62 = load i64, ptr %9, align 8
  %63 = add nsw i64 %62, %61
  store i64 %63, ptr %9, align 8
  %64 = load ptr, ptr %7, align 8
  %65 = load i64, ptr %12, align 8
  %66 = getelementptr inbounds i8, ptr %64, i64 %65
  store ptr %66, ptr %7, align 8
  br label %67

67:                                               ; preds = %54, %51
  %68 = load i32, ptr %10, align 4
  %69 = load ptr, ptr %7, align 8
  %70 = load i64, ptr %11, align 8
  %71 = load i64, ptr %9, align 8
  %72 = call i64 @pread(i32 noundef %68, ptr noundef %69, i64 noundef %70, i64 noundef %71)
  store i64 %72, ptr %12, align 8
  %73 = load i64, ptr %12, align 8
  %74 = load i64, ptr %11, align 8
  %75 = icmp eq i64 %73, %74
  br i1 %75, label %79, label %76

76:                                               ; preds = %67
  %77 = load i64, ptr %12, align 8
  %78 = icmp eq i64 %77, 0
  br label %79

79:                                               ; preds = %76, %67
  %80 = phi i1 [ true, %67 ], [ %78, %76 ]
  br i1 %80, label %81, label %85

81:                                               ; preds = %79
  %82 = load i64, ptr %13, align 8
  %83 = load i64, ptr %12, align 8
  %84 = add nsw i64 %82, %83
  store i64 %84, ptr %5, align 8
  br label %87

85:                                               ; preds = %79
  br label %37, !llvm.loop !8

86:                                               ; preds = %49
  store i64 -1, ptr %5, align 8
  br label %87

87:                                               ; preds = %86, %81, %34, %16
  %88 = load i64, ptr %5, align 8
  ret i64 %88
}