; Function Attrs: mustprogress nofree uwtable
define noundef i64 @_ZN32pxrInternal_v0_24__pxrReserved__9ArchPReadEP8_IO_FILEPvml(ptr noundef captures(none) %0, ptr noundef captures(none) %1, i64 noundef %2, i64 noundef %3) local_unnamed_addr #14 {
  %5 = icmp eq i64 %2, 0
  br i1 %5, label %.critedge2, label %6

6:                                                ; preds = %4
  %7 = tail call i32 @fileno(ptr noundef %0) #23
  %8 = tail call i64 @pread(i32 noundef %7, ptr noundef %1, i64 noundef %2, i64 noundef %3)
  %9 = icmp eq i64 %8, %2
  %10 = icmp eq i64 %8, 0
  %11 = or i1 %9, %10
  br i1 %11, label %.critedge2, label %.preheader

.preheader:                                       ; preds = %6, %.critedge.thread
  %.039 = phi ptr [ %.140, %.critedge.thread ], [ %1, %6 ]
  %.037 = phi i64 [ %.138, %.critedge.thread ], [ %3, %6 ]
  %.034 = phi i64 [ %.135, %.critedge.thread ], [ %2, %6 ]
  %.033 = phi i64 [ %22, %.critedge.thread ], [ %8, %6 ]
  %.0 = phi i64 [ %.1, %.critedge.thread ], [ 0, %6 ]
  %.not = icmp eq i64 %.033, -1
  br i1 %.not, label %12, label %.critedge

12:                                               ; preds = %.preheader
  %13 = tail call ptr @__errno_location() #27
  %14 = load i32, ptr %13, align 4
  %15 = icmp eq i32 %14, 4
  br i1 %15, label %.critedge.thread, label %.critedge2

.critedge:                                        ; preds = %.preheader
  %16 = icmp sgt i64 %.033, 0
  br i1 %16, label %17, label %.critedge.thread

17:                                               ; preds = %.critedge
  %18 = add nuw nsw i64 %.0, %.033
  %19 = sub nsw i64 %.034, %.033
  %20 = add nsw i64 %.033, %.037
  %21 = getelementptr inbounds nuw i8, ptr %.039, i64 %.033
  br label %.critedge.thread

.critedge.thread:                                 ; preds = %12, %17, %.critedge
  %.140 = phi ptr [ %21, %17 ], [ %.039, %.critedge ], [ %.039, %12 ]
  %.138 = phi i64 [ %20, %17 ], [ %.037, %.critedge ], [ %.037, %12 ]
  %.135 = phi i64 [ %19, %17 ], [ %.034, %.critedge ], [ %.034, %12 ]
  %.1 = phi i64 [ %18, %17 ], [ %.0, %.critedge ], [ %.0, %12 ]
  %22 = tail call i64 @pread(i32 noundef %7, ptr noundef %.140, i64 noundef %.135, i64 noundef %.138)
  %23 = icmp eq i64 %22, %.135
  %24 = icmp eq i64 %22, 0
  %25 = or i1 %23, %24
  br i1 %25, label %26, label %.preheader, !llvm.loop !24

26:                                               ; preds = %.critedge.thread
  %27 = add nsw i64 %22, %.1
  br label %.critedge2

.critedge2:                                       ; preds = %12, %6, %4, %26
  %.036 = phi i64 [ %27, %26 ], [ 0, %4 ], [ %8, %6 ], [ -1, %12 ]
  ret i64 %.036
}